; ModuleID = 'source-C-CXX/61/3658.c'
source_filename = "source-C-CXX/61/3658.c"
target datalayout = "e-m:e-p270:32:32-p271:32:32-p272:64:64-i64:64-f80:128-n8:16:32:64-S128"
target triple = "x86_64-pc-linux-gnu"

@.str = private unnamed_addr constant [3 x i8] c"%s\00", align 1

; Function Attrs: nounwind sspstrong uwtable
define dso_local i32 @main() local_unnamed_addr #0 {
  %1 = alloca [100 x i8], align 16
  %2 = alloca [100 x i8], align 16
  %3 = getelementptr inbounds [100 x i8], [100 x i8]* %1, i64 0, i64 0
  call void @llvm.lifetime.start.p0i8(i64 100, i8* nonnull %3) #4
  %4 = getelementptr inbounds [100 x i8], [100 x i8]* %2, i64 0, i64 0
  call void @llvm.lifetime.start.p0i8(i64 100, i8* nonnull %4) #4
  %5 = call i32 (i8*, ...) bitcast (i32 (...)* @gets to i32 (i8*, ...)*)(i8* nonnull %3) #4
  %6 = load i8, i8* %3, align 16, !tbaa !5
  store i8 %6, i8* %4, align 16, !tbaa !5
  br label %7

7:                                                ; preds = %40, %0
  %8 = phi i64 [ 1, %0 ], [ %42, %40 ]
  %9 = phi i32 [ 1, %0 ], [ %41, %40 ]
  %10 = getelementptr inbounds [100 x i8], [100 x i8]* %1, i64 0, i64 %8
  %11 = load i8, i8* %10, align 1, !tbaa !5
  %12 = icmp eq i8 %11, 32
  br i1 %12, label %13, label %18

13:                                               ; preds = %7
  %14 = add nsw i64 %8, -1
  %15 = getelementptr inbounds [100 x i8], [100 x i8]* %1, i64 0, i64 %14
  %16 = load i8, i8* %15, align 1, !tbaa !5
  %17 = icmp eq i8 %16, 32
  br i1 %17, label %22, label %18

18:                                               ; preds = %13, %7
  %19 = sext i32 %9 to i64
  %20 = getelementptr inbounds [100 x i8], [100 x i8]* %2, i64 0, i64 %19
  store i8 %11, i8* %20, align 1, !tbaa !5
  %21 = add nsw i32 %9, 1
  br label %22

22:                                               ; preds = %13, %18
  %23 = phi i32 [ %9, %13 ], [ %21, %18 ]
  %24 = add nuw nsw i64 %8, 1
  %25 = icmp eq i64 %24, 100
  br i1 %25, label %26, label %28, !llvm.loop !8

26:                                               ; preds = %22
  %27 = call i32 (i8*, ...) @printf(i8* nonnull dereferenceable(1) getelementptr inbounds ([3 x i8], [3 x i8]* @.str, i64 0, i64 0), i8* nonnull %4)
  call void @llvm.lifetime.end.p0i8(i64 100, i8* nonnull %4) #4
  call void @llvm.lifetime.end.p0i8(i64 100, i8* nonnull %3) #4
  ret i32 0

28:                                               ; preds = %22
  %29 = getelementptr inbounds [100 x i8], [100 x i8]* %1, i64 0, i64 %24
  %30 = load i8, i8* %29, align 1, !tbaa !5
  %31 = icmp eq i8 %30, 32
  br i1 %31, label %32, label %36

32:                                               ; preds = %28
  %33 = getelementptr inbounds [100 x i8], [100 x i8]* %1, i64 0, i64 %8
  %34 = load i8, i8* %33, align 1, !tbaa !5
  %35 = icmp eq i8 %34, 32
  br i1 %35, label %40, label %36

36:                                               ; preds = %32, %28
  %37 = sext i32 %23 to i64
  %38 = getelementptr inbounds [100 x i8], [100 x i8]* %2, i64 0, i64 %37
  store i8 %30, i8* %38, align 1, !tbaa !5
  %39 = add nsw i32 %23, 1
  br label %40

40:                                               ; preds = %36, %32
  %41 = phi i32 [ %23, %32 ], [ %39, %36 ]
  %42 = add nuw nsw i64 %8, 2
  br label %7
}

; Function Attrs: argmemonly mustprogress nofree nosync nounwind willreturn
declare void @llvm.lifetime.start.p0i8(i64 immarg, i8* nocapture) #1

declare i32 @gets(...) local_unnamed_addr #2

; Function Attrs: nofree nounwind
declare noundef i32 @printf(i8* nocapture noundef readonly, ...) local_unnamed_addr #3

; Function Attrs: argmemonly mustprogress nofree nosync nounwind willreturn
declare void @llvm.lifetime.end.p0i8(i64 immarg, i8* nocapture) #1


!llvm.module.flags = !{!0, !1, !2, !3}
!llvm.ident = !{!4}

!0 = !{i32 1, !"wchar_size", i32 4}
!1 = !{i32 7, !"PIC Level", i32 2}
!2 = !{i32 7, !"PIE Level", i32 2}
!3 = !{i32 7, !"uwtable", i32 1}
!4 = !{!"clang version 13.0.0"}
!5 = !{!6, !6, i64 0}
!6 = !{!"omnipotent char", !7, i64 0}
!7 = !{!"Simple C/C++ TBAA"}
!8 = distinct !{!8, !9}
!9 = !{!"llvm.loop.mustprogress"}
